; ModuleID = '50/356.c'
source_filename = "50/356.c"
target datalayout = "e-m:e-p270:32:32-p271:32:32-p272:64:64-i64:64-f80:128-n8:16:32:64-S128"
target triple = "x86_64-pc-linux-gnu"

@__const.main.month = private unnamed_addr constant [13 x i32] [i32 0, i32 31, i32 28, i32 31, i32 30, i32 31, i32 30, i32 31, i32 31, i32 30, i32 31, i32 30, i32 31], align 16
@.str = private unnamed_addr constant [3 x i8] c"%d\00", align 1
@.str.1 = private unnamed_addr constant [4 x i8] c"%d\0A\00", align 1

; Function Attrs: noinline nounwind uwtable
define dso_local i32 @main() #0 {
  %1 = alloca i32, align 4
  %2 = alloca [13 x i32], align 16
  %3 = alloca [13 x i32], align 16
  %4 = alloca i32, align 4
  %5 = alloca i32, align 4
  %6 = alloca i32, align 4
  store i32 0, i32* %1, align 4
  %7 = bitcast [13 x i32]* %2 to i8*
  call void @llvm.memcpy.p0i8.p0i8.i64(i8* align 16 %7, i8* align 16 bitcast ([13 x i32]* @__const.main.month to i8*), i64 52, i1 false)
  %8 = bitcast [13 x i32]* %3 to i8*
  call void @llvm.memset.p0i8.i64(i8* align 16 %8, i8 0, i64 52, i1 false)
  %9 = call i32 (i8*, ...) @__isoc99_scanf(i8* getelementptr inbounds ([3 x i8], [3 x i8]* @.str, i64 0, i64 0), i32* %4)
  %10 = getelementptr inbounds [13 x i32], [13 x i32]* %3, i64 0, i64 0
  store i32 13, i32* %10, align 16
  store i32 1, i32* %5, align 4
  br label %11

11:                                               ; preds = %44, %0
  %12 = load i32, i32* %5, align 4
  %13 = icmp slt i32 %12, 13
  br i1 %13, label %14, label %47

14:                                               ; preds = %11
  %15 = load i32, i32* %5, align 4
  %16 = sub nsw i32 %15, 1
  %17 = sext i32 %16 to i64
  %18 = getelementptr inbounds [13 x i32], [13 x i32]* %3, i64 0, i64 %17
  %19 = load i32, i32* %18, align 4
  %20 = load i32, i32* %5, align 4
  %21 = sub nsw i32 %20, 1
  %22 = sext i32 %21 to i64
  %23 = getelementptr inbounds [13 x i32], [13 x i32]* %2, i64 0, i64 %22
  %24 = load i32, i32* %23, align 4
  %25 = add nsw i32 %19, %24
  %26 = load i32, i32* %5, align 4
  %27 = sext i32 %26 to i64
  %28 = getelementptr inbounds [13 x i32], [13 x i32]* %3, i64 0, i64 %27
  store i32 %25, i32* %28, align 4
  %29 = load i32, i32* %5, align 4
  %30 = sext i32 %29 to i64
  %31 = getelementptr inbounds [13 x i32], [13 x i32]* %3, i64 0, i64 %30
  %32 = load i32, i32* %31, align 4
  %33 = srem i32 %32, 7
  %34 = load i32, i32* %4, align 4
  %35 = add nsw i32 %33, %34
  %36 = sub nsw i32 %35, 1
  %37 = srem i32 %36, 7
  store i32 %37, i32* %6, align 4
  %38 = load i32, i32* %6, align 4
  %39 = icmp eq i32 %38, 5
  br i1 %39, label %40, label %43

40:                                               ; preds = %14
  %41 = load i32, i32* %5, align 4
  %42 = call i32 (i8*, ...) @printf(i8* getelementptr inbounds ([4 x i8], [4 x i8]* @.str.1, i64 0, i64 0), i32 %41)
  br label %43

43:                                               ; preds = %40, %14
  br label %44

44:                                               ; preds = %43
  %45 = load i32, i32* %5, align 4
  %46 = add nsw i32 %45, 1
  store i32 %46, i32* %5, align 4
  br label %11

47:                                               ; preds = %11
  ret i32 0
}

; Function Attrs: argmemonly nounwind willreturn
declare void @llvm.memcpy.p0i8.p0i8.i64(i8* noalias nocapture writeonly, i8* noalias nocapture readonly, i64, i1 immarg) #1

; Function Attrs: argmemonly nounwind willreturn
declare void @llvm.memset.p0i8.i64(i8* nocapture writeonly, i8, i64, i1 immarg) #1

declare dso_local i32 @__isoc99_scanf(i8*, ...) #2

declare dso_local i32 @printf(i8*, ...) #2


!llvm.module.flags = !{!0}
!llvm.ident = !{!1}

!0 = !{i32 1, !"wchar_size", i32 4}
!1 = !{!"clang version 10.0.0-4ubuntu1 "}
